target datalayout = "e-m:e-p270:32:32-p271:32:32-p272:64:64-i64:64-i128:128-f80:128-n8:16:32:64-S128"
target triple = "x86_64-pc-linux-gnu"

@mi_out_default = internal global ptr null, align 8
@mi_out_arg = internal global ptr null, align 8
@stdout = external global ptr, align 8
@stderr = external global ptr, align 8

; Function Attrs: nounwind uwtable
define internal void @mi_recurse_exit() #0 {
  call void @mi_recurse_exit_prim() #11
  ret void
}

; Function Attrs: nounwind uwtable
define internal ptr @mi_out_get_default(ptr noundef %0) #0 {
  %2 = alloca ptr, align 8
  %3 = alloca ptr, align 8
  %4 = alloca ptr, align 8
  store ptr %0, ptr %2, align 8, !tbaa !18
  %5 = load ptr, ptr %2, align 8, !tbaa !18
  %6 = icmp ne ptr %5, null
  br i1 %6, label %7, label %11

7:                                                ; preds = %1
  %8 = load atomic i64, ptr @mi_out_arg acquire, align 8
  store i64 %8, ptr %3, align 8
  %9 = load ptr, ptr %3, align 8, !tbaa !18
  %10 = load ptr, ptr %2, align 8, !tbaa !18
  store ptr %9, ptr %10, align 8, !tbaa !18
  br label %11

11:                                               ; preds = %7, %1
  call void @llvm.lifetime.start.p0(i64 8, ptr %4) #12
  %12 = load volatile ptr, ptr @mi_out_default, align 8, !tbaa !18
  store ptr %12, ptr %4, align 8, !tbaa !18
  %13 = load ptr, ptr %4, align 8, !tbaa !18
  %14 = icmp eq ptr %13, null
  br i1 %14, label %15, label %16

15:                                               ; preds = %11
  br label %18

16:                                               ; preds = %11
  %17 = load ptr, ptr %4, align 8, !tbaa !18
  br label %18

18:                                               ; preds = %16, %15
  %19 = phi ptr [ @mi_out_buf, %15 ], [ %17, %16 ]
  call void @llvm.lifetime.end.p0(i64 8, ptr %4) #12
  ret ptr %19
}

; Function Attrs: nounwind uwtable
define internal zeroext i1 @mi_recurse_enter() #0 {
  %1 = call zeroext i1 @mi_recurse_enter_prim() #11
  ret i1 %1
}

; Function Attrs: nounwind uwtable
define hidden void @_mi_fputs(ptr noundef %0, ptr noundef %1, ptr noundef %2, ptr noundef %3) #0 {
  %5 = alloca ptr, align 8
  %6 = alloca ptr, align 8
  %7 = alloca ptr, align 8
  %8 = alloca ptr, align 8
  store ptr %0, ptr %5, align 8, !tbaa !18
  store ptr %1, ptr %6, align 8, !tbaa !18
  store ptr %2, ptr %7, align 8, !tbaa !20
  store ptr %3, ptr %8, align 8, !tbaa !20
  %9 = load ptr, ptr %5, align 8, !tbaa !18
  %10 = icmp eq ptr %9, null
  br i1 %10, label %19, label %11

11:                                               ; preds = %4
  %12 = load ptr, ptr %5, align 8, !tbaa !18
  %13 = load ptr, ptr @stdout, align 8, !tbaa !29
  %14 = icmp eq ptr %12, %13
  br i1 %14, label %19, label %15

15:                                               ; preds = %11
  %16 = load ptr, ptr %5, align 8, !tbaa !18
  %17 = load ptr, ptr @stderr, align 8, !tbaa !29
  %18 = icmp eq ptr %16, %17
  br i1 %18, label %19, label %34

19:                                               ; preds = %15, %11, %4
  %20 = call zeroext i1 @mi_recurse_enter() #11
  br i1 %20, label %22, label %21

21:                                               ; preds = %19
  br label %45

22:                                               ; preds = %19
  %23 = call ptr @mi_out_get_default(ptr noundef %6) #11
  store ptr %23, ptr %5, align 8, !tbaa !18
  %24 = load ptr, ptr %7, align 8, !tbaa !20
  %25 = icmp ne ptr %24, null
  br i1 %25, label %26, label %30

26:                                               ; preds = %22
  %27 = load ptr, ptr %5, align 8, !tbaa !18
  %28 = load ptr, ptr %7, align 8, !tbaa !20
  %29 = load ptr, ptr %6, align 8, !tbaa !18
  call void %27(ptr noundef %28, ptr noundef %29) #11
  br label %30

30:                                               ; preds = %26, %22
  %31 = load ptr, ptr %5, align 8, !tbaa !18
  %32 = load ptr, ptr %8, align 8, !tbaa !20
  %33 = load ptr, ptr %6, align 8, !tbaa !18
  call void %31(ptr noundef %32, ptr noundef %33) #11
  call void @mi_recurse_exit() #11
  br label %45

34:                                               ; preds = %15
  %35 = load ptr, ptr %7, align 8, !tbaa !20
  %36 = icmp ne ptr %35, null
  br i1 %36, label %37, label %41

37:                                               ; preds = %34
  %38 = load ptr, ptr %5, align 8, !tbaa !18
  %39 = load ptr, ptr %7, align 8, !tbaa !20
  %40 = load ptr, ptr %6, align 8, !tbaa !18
  call void %38(ptr noundef %39, ptr noundef %40) #11
  br label %41

41:                                               ; preds = %37, %34
  %42 = load ptr, ptr %5, align 8, !tbaa !18
  %43 = load ptr, ptr %8, align 8, !tbaa !20
  %44 = load ptr, ptr %6, align 8, !tbaa !18
  call void %42(ptr noundef %43, ptr noundef %44) #11
  br label %45

45:                                               ; preds = %21, %41, %30
  ret void
}