; Function Attrs: nounwind uwtable
define hidden void @_mi_fputs(ptr noundef readonly captures(address) %0, ptr noundef %1, ptr noundef %2, ptr noundef %3) local_unnamed_addr #1 {
  %5 = icmp eq ptr %0, null
  %6 = load ptr, ptr @stdout, align 8
  %7 = icmp eq ptr %0, %6
  %or.cond = select i1 %5, i1 true, i1 %7
  %8 = load ptr, ptr @stderr, align 8
  %9 = icmp eq ptr %0, %8
  %or.cond17 = select i1 %or.cond, i1 true, i1 %9
  br i1 %or.cond17, label %10, label %20

10:                                               ; preds = %4
  %11 = tail call fastcc noundef zeroext i1 @mi_recurse_enter_prim() #17
  br i1 %11, label %12, label %23

12:                                               ; preds = %10
  %13 = load atomic i64, ptr @mi_out_arg acquire, align 8
  %14 = inttoptr i64 %13 to ptr
  %15 = load volatile ptr, ptr @mi_out_default, align 8, !tbaa !6
  %16 = icmp eq ptr %15, null
  %17 = select i1 %16, ptr @mi_out_buf, ptr %15
  %.not14 = icmp eq ptr %2, null
  br i1 %.not14, label %19, label %18

18:                                               ; preds = %12
  tail call void %17(ptr noundef nonnull %2, ptr noundef %14) #16
  br label %19

19:                                               ; preds = %18, %12
  tail call void %17(ptr noundef %3, ptr noundef %14) #16
  tail call fastcc void @mi_recurse_exit_prim() #17
  br label %23

20:                                               ; preds = %4
  %.not = icmp eq ptr %2, null
  br i1 %.not, label %22, label %21

21:                                               ; preds = %20
  tail call void %0(ptr noundef nonnull %2, ptr noundef %1) #16
  br label %22

22:                                               ; preds = %21, %20
  tail call void %0(ptr noundef %3, ptr noundef %1) #16
  br label %23

23:                                               ; preds = %10, %22, %19
  ret void
}